(dp1
(I7
I3
tp2
(lp3
(lp4
I8
aI8
aI5
aa(lp5
I9
aI6
aI6
aa(lp6
I10
aI7
aI4
aa(lp7
I10
aI8
aI3
aa(lp8
I10
aI10
aI1
aa(lp9
I11
aI6
aI4
aa(lp10
I11
aI8
aI2
aa(lp11
I12
aI6
aI3
aa(lp12
I12
aI7
aI2
aa(lp13
I12
aI8
aI1
aa(lp14
I12
aI9
aa(lp15
I13
aI4
aI4
aa(lp16
I13
aI6
aI2
aa(lp17
I13
aI7
aI1
aa(lp18
I13
aI8
aa(lp19
I14
aI5
aI2
aa(lp20
I14
aI6
aI1
aa(lp21
I14
aI7
aa(lp22
I15
aI4
aI2
aa(lp23
I15
aI6
aa(lp24
I15
aI6
aa(lp25
I16
aI4
aI1
aa(lp26
I16
aI5
aa(lp27
I17
aI2
aI2
aa(lp28
I17
aI4
aa(lp29
I18
aI3
aa(lp30
I19
aI2
aa(lp31
I21
aas(I12
I1
tp32
(lp33
(lp34
I12
aas(I9
I1
tp35
(lp36
(lp37
I9
aas(I2
I8
tp38
(lp39
(lp40
I2
aI2
aI2
aI2
aI2
aI2
aI2
aI2
aa(lp41
I4
aI2
aI2
aI2
aI2
aI2
aI2
aa(lp42
I4
aI4
aI2
aI2
aI2
aI2
aa(lp43
I4
aI4
aI4
aI2
aI2
aa(lp44
I4
aI4
aI4
aI4
aa(lp45
I6
aI2
aI2
aI2
aI2
aI2
aa(lp46
I6
aI4
aI2
aI2
aI2
aa(lp47
I6
aI4
aI4
aI2
aa(lp48
I6
aI6
aI2
aI2
aa(lp49
I6
aI6
aI4
aa(lp50
I8
aI2
aI2
aI2
aI2
aa(lp51
I8
aI4
aI2
aI2
aa(lp52
I8
aI4
aI4
aa(lp53
I8
aI6
aI2
aa(lp54
I8
aI8
aa(lp55
I10
aI2
aI2
aI2
aa(lp56
I10
aI4
aI2
aa(lp57
I10
aI6
aa(lp58
I12
aI2
aI2
aa(lp59
I12
aI4
aa(lp60
I14
aI2
aa(lp61
I16
aas(I11
I2
tp62
(lp63
(lp64
I12
aI10
aa(lp65
I14
aI8
aa(lp66
I16
aI6
aa(lp67
I18
aI4
aa(lp68
I20
aI2
aa(lp69
I22
aas(I16
I2
tp70
(lp71
(lp72
I16
aI16
aa(lp73
I18
aI14
aa(lp74
I20
aI12
aa(lp75
I22
aI10
aa(lp76
I24
aI8
aa(lp77
I26
aI6
aa(lp78
I28
aI4
aa(lp79
I30
aI2
aa(lp80
I32
aas(I2
I1
tp81
(lp82
(lp83
I2
aas(I15
I1
tp84
(lp85
(lp86
I15
aas(I6
I2
tp87
(lp88
(lp89
I6
aI6
aa(lp90
I8
aI4
aa(lp91
I10
aI2
aa(lp92
I12
aas(I5
I1
tp93
(lp94
(lp95
I5
aas(I2
I5
tp96
(lp97
(lp98
I2
aI2
aI2
aI2
aI2
aa(lp99
I4
aI2
aI2
aI2
aa(lp100
I4
aI4
aI2
aa(lp101
I6
aI2
aI2
aa(lp102
I6
aI4
aa(lp103
I8
aI2
aa(lp104
I10
aas(I10
I3
tp105
(lp106
(lp107
I10
aI10
aI10
aa(lp108
I12
aI10
aI8
aa(lp109
I12
aI12
aI6
aa(lp110
I13
aI10
aI7
aa(lp111
I14
aI8
aI8
aa(lp112
I14
aI10
aI6
aa(lp113
I14
aI11
aI5
aa(lp114
I14
aI12
aI4
aa(lp115
I14
aI14
aI2
aa(lp116
I15
aI9
aI6
aa(lp117
I15
aI10
aI5
aa(lp118
I15
aI12
aI3
aa(lp119
I16
aI8
aI6
aa(lp120
I16
aI10
aI4
aa(lp121
I16
aI10
aI4
aa(lp122
I16
aI11
aI3
aa(lp123
I16
aI12
aI2
aa(lp124
I16
aI13
aI1
aa(lp125
I16
aI14
aa(lp126
I17
aI8
aI5
aa(lp127
I17
aI9
aI4
aa(lp128
I17
aI10
aI3
aa(lp129
I17
aI11
aI2
aa(lp130
I17
aI12
aI1
aa(lp131
I18
aI6
aI6
aa(lp132
I18
aI8
aI4
aa(lp133
I18
aI9
aI3
aa(lp134
I18
aI10
aI2
aa(lp135
I18
aI10
aI2
aa(lp136
I18
aI11
aI1
aa(lp137
I18
aI12
aa(lp138
I18
aI12
aa(lp139
I19
aI7
aI4
aa(lp140
I19
aI8
aI3
aa(lp141
I19
aI9
aI2
aa(lp142
I19
aI10
aI1
aa(lp143
I19
aI10
aI1
aa(lp144
I19
aI11
aa(lp145
I20
aI6
aI4
aa(lp146
I20
aI8
aI2
aa(lp147
I20
aI8
aI2
aa(lp148
I20
aI9
aI1
aa(lp149
I20
aI10
aa(lp150
I20
aI10
aa(lp151
I21
aI6
aI3
aa(lp152
I21
aI7
aI2
aa(lp153
I21
aI8
aI1
aa(lp154
I21
aI9
aa(lp155
I21
aI9
aa(lp156
I22
aI4
aI4
aa(lp157
I22
aI6
aI2
aa(lp158
I22
aI7
aI1
aa(lp159
I22
aI8
aa(lp160
I22
aI8
aa(lp161
I23
aI5
aI2
aa(lp162
I23
aI6
aI1
aa(lp163
I23
aI7
aa(lp164
I24
aI4
aI2
aa(lp165
I24
aI6
aa(lp166
I24
aI6
aa(lp167
I25
aI4
aI1
aa(lp168
I25
aI5
aa(lp169
I26
aI2
aI2
aa(lp170
I26
aI4
aa(lp171
I27
aI3
aa(lp172
I28
aI2
aa(lp173
I30
aas(I7
I2
tp174
(lp175
(lp176
I8
aI6
aa(lp177
I10
aI4
aa(lp178
I12
aI2
aa(lp179
I14
aas(I12
I2
tp180
(lp181
(lp182
I12
aI12
aa(lp183
I14
aI10
aa(lp184
I16
aI8
aa(lp185
I18
aI6
aa(lp186
I20
aI4
aa(lp187
I22
aI2
aa(lp188
I24
aas(I3
I3
tp189
(lp190
(lp191
I4
aI4
aI1
aa(lp192
I5
aI2
aI2
aa(lp193
I6
aI3
aa(lp194
I7
aI2
aa(lp195
I9
aas(I2
I9
tp196
(lp197
(lp198
I2
aI2
aI2
aI2
aI2
aI2
aI2
aI2
aI2
aa(lp199
I4
aI2
aI2
aI2
aI2
aI2
aI2
aI2
aa(lp200
I4
aI4
aI2
aI2
aI2
aI2
aI2
aa(lp201
I4
aI4
aI4
aI2
aI2
aI2
aa(lp202
I4
aI4
aI4
aI4
aI2
aa(lp203
I6
aI2
aI2
aI2
aI2
aI2
aI2
aa(lp204
I6
aI4
aI2
aI2
aI2
aI2
aa(lp205
I6
aI4
aI4
aI2
aI2
aa(lp206
I6
aI4
aI4
aI4
aa(lp207
I6
aI6
aI2
aI2
aI2
aa(lp208
I6
aI6
aI4
aI2
aa(lp209
I6
aI6
aI6
aa(lp210
I8
aI2
aI2
aI2
aI2
aI2
aa(lp211
I8
aI4
aI2
aI2
aI2
aa(lp212
I8
aI4
aI4
aI2
aa(lp213
I8
aI6
aI2
aI2
aa(lp214
I8
aI6
aI4
aa(lp215
I8
aI8
aI2
aa(lp216
I10
aI2
aI2
aI2
aI2
aa(lp217
I10
aI4
aI2
aI2
aa(lp218
I10
aI4
aI4
aa(lp219
I10
aI6
aI2
aa(lp220
I10
aI8
aa(lp221
I12
aI2
aI2
aI2
aa(lp222
I12
aI4
aI2
aa(lp223
I12
aI6
aa(lp224
I14
aI2
aI2
aa(lp225
I14
aI4
aa(lp226
I16
aI2
aa(lp227
I18
aas(I13
I3
tp228
(lp229
(lp230
I14
aI14
aI11
aa(lp231
I15
aI12
aI12
aa(lp232
I16
aI13
aI10
aa(lp233
I16
aI14
aI9
aa(lp234
I16
aI16
aI7
aa(lp235
I17
aI12
aI10
aa(lp236
I17
aI14
aI8
aa(lp237
I18
aI12
aI9
aa(lp238
I18
aI13
aI8
aa(lp239
I18
aI14
aI7
aa(lp240
I18
aI15
aI6
aa(lp241
I18
aI16
aI5
aa(lp242
I18
aI18
aI3
aa(lp243
I19
aI10
aI10
aa(lp244
I19
aI12
aI8
aa(lp245
I19
aI13
aI7
aa(lp246
I19
aI14
aI6
aa(lp247
I19
aI16
aI4
aa(lp248
I20
aI11
aI8
aa(lp249
I20
aI12
aI7
aa(lp250
I20
aI13
aI6
aa(lp251
I20
aI14
aI5
aa(lp252
I20
aI14
aI5
aa(lp253
I20
aI15
aI4
aa(lp254
I20
aI16
aI3
aa(lp255
I20
aI17
aI2
aa(lp256
I20
aI18
aI1
aa(lp257
I21
aI10
aI8
aa(lp258
I21
aI12
aI6
aa(lp259
I21
aI12
aI6
aa(lp260
I21
aI13
aI5
aa(lp261
I21
aI14
aI4
aa(lp262
I21
aI15
aI3
aa(lp263
I21
aI16
aI2
aa(lp264
I21
aI18
aa(lp265
I22
aI10
aI7
aa(lp266
I22
aI11
aI6
aa(lp267
I22
aI12
aI5
aa(lp268
I22
aI13
aI4
aa(lp269
I22
aI13
aI4
aa(lp270
I22
aI14
aI3
aa(lp271
I22
aI14
aI3
aa(lp272
I22
aI15
aI2
aa(lp273
I22
aI16
aI1
aa(lp274
I22
aI16
aI1
aa(lp275
I22
aI17
aa(lp276
I23
aI8
aI8
aa(lp277
I23
aI10
aI6
aa(lp278
I23
aI11
aI5
aa(lp279
I23
aI12
aI4
aa(lp280
I23
aI12
aI4
aa(lp281
I23
aI13
aI3
aa(lp282
I23
aI14
aI2
aa(lp283
I23
aI14
aI2
aa(lp284
I23
aI15
aI1
aa(lp285
I23
aI16
aa(lp286
I24
aI9
aI6
aa(lp287
I24
aI10
aI5
aa(lp288
I24
aI11
aI4
aa(lp289
I24
aI12
aI3
aa(lp290
I24
aI12
aI3
aa(lp291
I24
aI13
aI2
aa(lp292
I24
aI13
aI2
aa(lp293
I24
aI14
aI1
aa(lp294
I24
aI14
aI1
aa(lp295
I24
aI15
aa(lp296
I24
aI15
aa(lp297
I25
aI8
aI6
aa(lp298
I25
aI10
aI4
aa(lp299
I25
aI10
aI4
aa(lp300
I25
aI11
aI3
aa(lp301
I25
aI12
aI2
aa(lp302
I25
aI12
aI2
aa(lp303
I25
aI13
aI1
aa(lp304
I25
aI13
aI1
aa(lp305
I25
aI14
aa(lp306
I25
aI14
aa(lp307
I26
aI8
aI5
aa(lp308
I26
aI9
aI4
aa(lp309
I26
aI10
aI3
aa(lp310
I26
aI11
aI2
aa(lp311
I26
aI11
aI2
aa(lp312
I26
aI12
aI1
aa(lp313
I26
aI12
aI1
aa(lp314
I26
aI13
aa(lp315
I26
aI13
aa(lp316
I27
aI6
aI6
aa(lp317
I27
aI8
aI4
aa(lp318
I27
aI9
aI3
aa(lp319
I27
aI10
aI2
aa(lp320
I27
aI10
aI2
aa(lp321
I27
aI11
aI1
aa(lp322
I27
aI12
aa(lp323
I27
aI12
aa(lp324
I27
aI12
aa(lp325
I28
aI7
aI4
aa(lp326
I28
aI8
aI3
aa(lp327
I28
aI9
aI2
aa(lp328
I28
aI10
aI1
aa(lp329
I28
aI10
aI1
aa(lp330
I28
aI11
aa(lp331
I28
aI11
aa(lp332
I29
aI6
aI4
aa(lp333
I29
aI8
aI2
aa(lp334
I29
aI8
aI2
aa(lp335
I29
aI9
aI1
aa(lp336
I29
aI10
aa(lp337
I29
aI10
aa(lp338
I30
aI6
aI3
aa(lp339
I30
aI7
aI2
aa(lp340
I30
aI8
aI1
aa(lp341
I30
aI9
aa(lp342
I30
aI9
aa(lp343
I31
aI4
aI4
aa(lp344
I31
aI6
aI2
aa(lp345
I31
aI7
aI1
aa(lp346
I31
aI8
aa(lp347
I31
aI8
aa(lp348
I32
aI5
aI2
aa(lp349
I32
aI6
aI1
aa(lp350
I32
aI7
aa(lp351
I33
aI4
aI2
aa(lp352
I33
aI6
aa(lp353
I33
aI6
aa(lp354
I34
aI4
aI1
aa(lp355
I34
aI5
aa(lp356
I35
aI2
aI2
aa(lp357
I35
aI4
aa(lp358
I36
aI3
aa(lp359
I37
aI2
aa(lp360
I39
aas(I8
I1
tp361
(lp362
(lp363
I8
aas(I16
I3
tp364
(lp365
(lp366
I16
aI16
aI16
aa(lp367
I18
aI16
aI14
aa(lp368
I18
aI18
aI12
aa(lp369
I19
aI16
aI13
aa(lp370
I20
aI14
aI14
aa(lp371
I20
aI16
aI12
aa(lp372
I20
aI17
aI11
aa(lp373
I20
aI18
aI10
aa(lp374
I20
aI20
aI8
aa(lp375
I21
aI15
aI12
aa(lp376
I21
aI16
aI11
aa(lp377
I21
aI18
aI9
aa(lp378
I22
aI14
aI12
aa(lp379
I22
aI16
aI10
aa(lp380
I22
aI16
aI10
aa(lp381
I22
aI17
aI9
aa(lp382
I22
aI18
aI8
aa(lp383
I22
aI19
aI7
aa(lp384
I22
aI20
aI6
aa(lp385
I22
aI22
aI4
aa(lp386
I23
aI14
aI11
aa(lp387
I23
aI15
aI10
aa(lp388
I23
aI16
aI9
aa(lp389
I23
aI17
aI8
aa(lp390
I23
aI18
aI7
aa(lp391
I23
aI20
aI5
aa(lp392
I24
aI12
aI12
aa(lp393
I24
aI14
aI10
aa(lp394
I24
aI15
aI9
aa(lp395
I24
aI16
aI8
aa(lp396
I24
aI16
aI8
aa(lp397
I24
aI17
aI7
aa(lp398
I24
aI18
aI6
aa(lp399
I24
aI18
aI6
aa(lp400
I24
aI19
aI5
aa(lp401
I24
aI20
aI4
aa(lp402
I24
aI21
aI3
aa(lp403
I24
aI22
aI2
aa(lp404
I24
aI24
aa(lp405
I25
aI13
aI10
aa(lp406
I25
aI14
aI9
aa(lp407
I25
aI15
aI8
aa(lp408
I25
aI16
aI7
aa(lp409
I25
aI16
aI7
aa(lp410
I25
aI17
aI6
aa(lp411
I25
aI18
aI5
aa(lp412
I25
aI19
aI4
aa(lp413
I25
aI20
aI3
aa(lp414
I25
aI22
aI1
aa(lp415
I26
aI12
aI10
aa(lp416
I26
aI14
aI8
aa(lp417
I26
aI14
aI8
aa(lp418
I26
aI15
aI7
aa(lp419
I26
aI16
aI6
aa(lp420
I26
aI16
aI6
aa(lp421
I26
aI17
aI5
aa(lp422
I26
aI17
aI5
aa(lp423
I26
aI18
aI4
aa(lp424
I26
aI18
aI4
aa(lp425
I26
aI19
aI3
aa(lp426
I26
aI20
aI2
aa(lp427
I26
aI20
aI2
aa(lp428
I26
aI21
aI1
aa(lp429
I26
aI22
aa(lp430
I27
aI12
aI9
aa(lp431
I27
aI13
aI8
aa(lp432
I27
aI14
aI7
aa(lp433
I27
aI15
aI6
aa(lp434
I27
aI15
aI6
aa(lp435
I27
aI16
aI5
aa(lp436
I27
aI16
aI5
aa(lp437
I27
aI17
aI4
aa(lp438
I27
aI18
aI3
aa(lp439
I27
aI18
aI3
aa(lp440
I27
aI19
aI2
aa(lp441
I27
aI20
aI1
aa(lp442
I27
aI21
aa(lp443
I28
aI10
aI10
aa(lp444
I28
aI12
aI8
aa(lp445
I28
aI13
aI7
aa(lp446
I28
aI14
aI6
aa(lp447
I28
aI14
aI6
aa(lp448
I28
aI15
aI5
aa(lp449
I28
aI16
aI4
aa(lp450
I28
aI16
aI4
aa(lp451
I28
aI16
aI4
aa(lp452
I28
aI17
aI3
aa(lp453
I28
aI17
aI3
aa(lp454
I28
aI18
aI2
aa(lp455
I28
aI18
aI2
aa(lp456
I28
aI19
aI1
aa(lp457
I28
aI19
aI1
aa(lp458
I28
aI20
aa(lp459
I28
aI20
aa(lp460
I29
aI11
aI8
aa(lp461
I29
aI12
aI7
aa(lp462
I29
aI13
aI6
aa(lp463
I29
aI14
aI5
aa(lp464
I29
aI14
aI5
aa(lp465
I29
aI15
aI4
aa(lp466
I29
aI15
aI4
aa(lp467
I29
aI16
aI3
aa(lp468
I29
aI16
aI3
aa(lp469
I29
aI17
aI2
aa(lp470
I29
aI17
aI2
aa(lp471
I29
aI18
aI1
aa(lp472
I29
aI18
aI1
aa(lp473
I29
aI19
aa(lp474
I30
aI10
aI8
aa(lp475
I30
aI12
aI6
aa(lp476
I30
aI12
aI6
aa(lp477
I30
aI13
aI5
aa(lp478
I30
aI14
aI4
aa(lp479
I30
aI14
aI4
aa(lp480
I30
aI15
aI3
aa(lp481
I30
aI15
aI3
aa(lp482
I30
aI16
aI2
aa(lp483
I30
aI16
aI2
aa(lp484
I30
aI16
aI2
aa(lp485
I30
aI17
aI1
aa(lp486
I30
aI17
aI1
aa(lp487
I30
aI18
aa(lp488
I30
aI18
aa(lp489
I30
aI18
aa(lp490
I31
aI10
aI7
aa(lp491
I31
aI11
aI6
aa(lp492
I31
aI12
aI5
aa(lp493
I31
aI13
aI4
aa(lp494
I31
aI13
aI4
aa(lp495
I31
aI14
aI3
aa(lp496
I31
aI14
aI3
aa(lp497
I31
aI15
aI2
aa(lp498
I31
aI15
aI2
aa(lp499
I31
aI16
aI1
aa(lp500
I31
aI16
aI1
aa(lp501
I31
aI16
aI1
aa(lp502
I31
aI17
aa(lp503
I31
aI17
aa(lp504
I32
aI8
aI8
aa(lp505
I32
aI10
aI6
aa(lp506
I32
aI11
aI5
aa(lp507
I32
aI12
aI4
aa(lp508
I32
aI12
aI4
aa(lp509
I32
aI13
aI3
aa(lp510
I32
aI14
aI2
aa(lp511
I32
aI14
aI2
aa(lp512
I32
aI14
aI2
aa(lp513
I32
aI15
aI1
aa(lp514
I32
aI15
aI1
aa(lp515
I32
aI16
aa(lp516
I32
aI16
aa(lp517
I32
aI16
aa(lp518
I33
aI9
aI6
aa(lp519
I33
aI10
aI5
aa(lp520
I33
aI11
aI4
aa(lp521
I33
aI12
aI3
aa(lp522
I33
aI12
aI3
aa(lp523
I33
aI13
aI2
aa(lp524
I33
aI13
aI2
aa(lp525
I33
aI14
aI1
aa(lp526
I33
aI14
aI1
aa(lp527
I33
aI15
aa(lp528
I33
aI15
aa(lp529
I33
aI15
aa(lp530
I34
aI8
aI6
aa(lp531
I34
aI10
aI4
aa(lp532
I34
aI10
aI4
aa(lp533
I34
aI11
aI3
aa(lp534
I34
aI12
aI2
aa(lp535
I34
aI12
aI2
aa(lp536
I34
aI13
aI1
aa(lp537
I34
aI13
aI1
aa(lp538
I34
aI14
aa(lp539
I34
aI14
aa(lp540
I34
aI14
aa(lp541
I35
aI8
aI5
aa(lp542
I35
aI9
aI4
aa(lp543
I35
aI10
aI3
aa(lp544
I35
aI11
aI2
aa(lp545
I35
aI11
aI2
aa(lp546
I35
aI12
aI1
aa(lp547
I35
aI12
aI1
aa(lp548
I35
aI13
aa(lp549
I35
aI13
aa(lp550
I36
aI6
aI6
aa(lp551
I36
aI8
aI4
aa(lp552
I36
aI9
aI3
aa(lp553
I36
aI10
aI2
aa(lp554
I36
aI10
aI2
aa(lp555
I36
aI11
aI1
aa(lp556
I36
aI12
aa(lp557
I36
aI12
aa(lp558
I36
aI12
aa(lp559
I37
aI7
aI4
aa(lp560
I37
aI8
aI3
aa(lp561
I37
aI9
aI2
aa(lp562
I37
aI10
aI1
aa(lp563
I37
aI10
aI1
aa(lp564
I37
aI11
aa(lp565
I37
aI11
aa(lp566
I38
aI6
aI4
aa(lp567
I38
aI8
aI2
aa(lp568
I38
aI8
aI2
aa(lp569
I38
aI9
aI1
aa(lp570
I38
aI10
aa(lp571
I38
aI10
aa(lp572
I39
aI6
aI3
aa(lp573
I39
aI7
aI2
aa(lp574
I39
aI8
aI1
aa(lp575
I39
aI9
aa(lp576
I39
aI9
aa(lp577
I40
aI4
aI4
aa(lp578
I40
aI6
aI2
aa(lp579
I40
aI7
aI1
aa(lp580
I40
aI8
aa(lp581
I40
aI8
aa(lp582
I41
aI5
aI2
aa(lp583
I41
aI6
aI1
aa(lp584
I41
aI7
aa(lp585
I42
aI4
aI2
aa(lp586
I42
aI6
aa(lp587
I42
aI6
aa(lp588
I43
aI4
aI1
aa(lp589
I43
aI5
aa(lp590
I44
aI2
aI2
aa(lp591
I44
aI4
aa(lp592
I45
aI3
aa(lp593
I46
aI2
aa(lp594
I48
aas(I4
I4
tp595
(lp596
(lp597
I4
aI4
aI4
aI4
aa(lp598
I6
aI4
aI4
aI2
aa(lp599
I6
aI6
aI2
aI2
aa(lp600
I6
aI6
aI4
aa(lp601
I7
aI4
aI4
aI1
aa(lp602
I7
aI5
aI3
aI1
aa(lp603
I7
aI6
aI3
aa(lp604
I7
aI7
aI1
aI1
aa(lp605
I8
aI4
aI2
aI2
aa(lp606
I8
aI4
aI4
aa(lp607
I8
aI4
aI4
aa(lp608
I8
aI5
aI2
aI1
aa(lp609
I8
aI6
aI2
aa(lp610
I8
aI6
aI2
aa(lp611
I8
aI8
aa(lp612
I9
aI4
aI2
aI1
aa(lp613
I9
aI4
aI3
aa(lp614
I9
aI5
aI2
aa(lp615
I9
aI6
aI1
aa(lp616
I10
aI2
aI2
aI2
aa(lp617
I10
aI4
aI2
aa(lp618
I10
aI4
aI2
aa(lp619
I10
aI5
aI1
aa(lp620
I10
aI6
aa(lp621
I10
aI6
aa(lp622
I11
aI3
aI2
aa(lp623
I11
aI4
aI1
aa(lp624
I12
aI2
aI2
aa(lp625
I12
aI4
aa(lp626
I12
aI4
aa(lp627
I13
aI3
aa(lp628
I14
aI2
aa(lp629
I16
aas(I6
I3
tp630
(lp631
(lp632
I6
aI6
aI6
aa(lp633
I8
aI6
aI4
aa(lp634
I8
aI8
aI2
aa(lp635
I9
aI6
aI3
aa(lp636
I10
aI4
aI4
aa(lp637
I10
aI6
aI2
aa(lp638
I10
aI7
aI1
aa(lp639
I10
aI8
aa(lp640
I11
aI5
aI2
aa(lp641
I11
aI6
aI1
aa(lp642
I12
aI4
aI2
aa(lp643
I12
aI6
aa(lp644
I12
aI6
aa(lp645
I13
aI4
aI1
aa(lp646
I13
aI5
aa(lp647
I14
aI2
aI2
aa(lp648
I14
aI4
aa(lp649
I15
aI3
aa(lp650
I16
aI2
aa(lp651
I18
aas(I14
I1
tp652
(lp653
(lp654
I14
aas(I11
I1
tp655
(lp656
(lp657
I11
aas(I3
I6
tp658
(lp659
(lp660
I5
aI5
aI4
aI3
aI1
aa(lp661
I5
aI5
aI5
aI1
aI1
aI1
aa(lp662
I6
aI4
aI4
aI2
aI2
aa(lp663
I6
aI4
aI4
aI4
aa(lp664
I6
aI5
aI3
aI2
aI1
aI1
aa(lp665
I6
aI5
aI4
aI2
aI1
aa(lp666
I6
aI6
aI2
aI2
aI2
aa(lp667
I6
aI6
aI4
aI2
aa(lp668
I6
aI6
aI6
aa(lp669
I7
aI4
aI2
aI2
aI2
aI1
aa(lp670
I7
aI4
aI4
aI2
aI1
aa(lp671
I7
aI4
aI4
aI3
aa(lp672
I7
aI5
aI2
aI2
aI2
aa(lp673
I7
aI5
aI3
aI2
aI1
aa(lp674
I7
aI5
aI4
aI1
aI1
aa(lp675
I7
aI5
aI4
aI2
aa(lp676
I7
aI6
aI2
aI2
aI1
aa(lp677
I7
aI6
aI3
aI2
aa(lp678
I7
aI6
aI4
aI1
aa(lp679
I7
aI7
aI3
aI1
aa(lp680
I8
aI2
aI2
aI2
aI2
aI2
aa(lp681
I8
aI4
aI2
aI2
aI2
aa(lp682
I8
aI4
aI3
aI2
aI1
aa(lp683
I8
aI4
aI4
aI2
aa(lp684
I8
aI4
aI4
aI2
aa(lp685
I8
aI5
aI2
aI2
aI1
aa(lp686
I8
aI5
aI3
aI1
aI1
aa(lp687
I8
aI5
aI3
aI2
aa(lp688
I8
aI5
aI4
aI1
aa(lp689
I8
aI6
aI2
aI2
aa(lp690
I8
aI6
aI2
aI2
aa(lp691
I8
aI6
aI3
aI1
aa(lp692
I8
aI6
aI4
aa(lp693
I8
aI6
aI4
aa(lp694
I8
aI7
aI2
aI1
aa(lp695
I8
aI8
aI2
aa(lp696
I9
aI3
aI2
aI2
aI2
aa(lp697
I9
aI4
aI2
aI2
aI1
aa(lp698
I9
aI4
aI3
aI2
aa(lp699
I9
aI4
aI4
aI1
aa(lp700
I9
aI4
aI4
aI1
aa(lp701
I9
aI5
aI2
aI2
aa(lp702
I9
aI5
aI2
aI2
aa(lp703
I9
aI5
aI3
aI1
aa(lp704
I9
aI6
aI2
aI1
aa(lp705
I9
aI6
aI3
aa(lp706
I9
aI6
aI3
aa(lp707
I9
aI7
aI2
aa(lp708
I10
aI2
aI2
aI2
aI2
aa(lp709
I10
aI4
aI2
aI2
aa(lp710
I10
aI4
aI2
aI2
aa(lp711
I10
aI4
aI3
aI1
aa(lp712
I10
aI4
aI4
aa(lp713
I10
aI4
aI4
aa(lp714
I10
aI5
aI2
aI1
aa(lp715
I10
aI5
aI3
aa(lp716
I10
aI6
aI2
aa(lp717
I10
aI6
aI2
aa(lp718
I10
aI7
aI1
aa(lp719
I10
aI8
aa(lp720
I11
aI3
aI2
aI2
aa(lp721
I11
aI4
aI2
aI1
aa(lp722
I11
aI4
aI3
aa(lp723
I11
aI5
aI2
aa(lp724
I11
aI5
aI2
aa(lp725
I11
aI6
aI1
aa(lp726
I12
aI2
aI2
aI2
aa(lp727
I12
aI4
aI2
aa(lp728
I12
aI4
aI2
aa(lp729
I12
aI6
aa(lp730
I12
aI6
aa(lp731
I13
aI3
aI2
aa(lp732
I13
aI4
aI1
aa(lp733
I13
aI5
aa(lp734
I14
aI2
aI2
aa(lp735
I14
aI4
aa(lp736
I15
aI3
aa(lp737
I16
aI2
aa(lp738
I18
aas(I2
I2
tp739
(lp740
(lp741
I2
aI2
aa(lp742
I4
aas(I3
I5
tp743
(lp744
(lp745
I5
aI4
aI4
aI2
aa(lp746
I5
aI5
aI3
aI1
aI1
aa(lp747
I6
aI4
aI2
aI2
aI1
aa(lp748
I6
aI4
aI4
aI1
aa(lp749
I6
aI5
aI2
aI2
aa(lp750
I6
aI6
aI3
aa(lp751
I7
aI2
aI2
aI2
aI2
aa(lp752
I7
aI4
aI2
aI2
aa(lp753
I7
aI4
aI3
aI1
aa(lp754
I7
aI4
aI4
aa(lp755
I7
aI5
aI2
aI1
aa(lp756
I7
aI6
aI2
aa(lp757
I8
aI3
aI2
aI2
aa(lp758
I8
aI4
aI2
aI1
aa(lp759
I8
aI4
aI3
aa(lp760
I8
aI5
aI2
aa(lp761
I8
aI6
aI1
aa(lp762
I9
aI2
aI2
aI2
aa(lp763
I9
aI4
aI2
aa(lp764
I9
aI4
aI2
aa(lp765
I9
aI6
aa(lp766
I10
aI3
aI2
aa(lp767
I10
aI4
aI1
aa(lp768
I10
aI5
aa(lp769
I11
aI2
aI2
aa(lp770
I11
aI4
aa(lp771
I12
aI3
aa(lp772
I13
aI2
aa(lp773
I15
aas(I4
I1
tp774
(lp775
(lp776
I4
aas(I12
I3
tp777
(lp778
(lp779
I12
aI12
aI12
aa(lp780
I14
aI12
aI10
aa(lp781
I14
aI14
aI8
aa(lp782
I15
aI12
aI9
aa(lp783
I16
aI10
aI10
aa(lp784
I16
aI12
aI8
aa(lp785
I16
aI13
aI7
aa(lp786
I16
aI14
aI6
aa(lp787
I16
aI16
aI4
aa(lp788
I17
aI11
aI8
aa(lp789
I17
aI12
aI7
aa(lp790
I17
aI14
aI5
aa(lp791
I18
aI10
aI8
aa(lp792
I18
aI12
aI6
aa(lp793
I18
aI12
aI6
aa(lp794
I18
aI13
aI5
aa(lp795
I18
aI14
aI4
aa(lp796
I18
aI15
aI3
aa(lp797
I18
aI16
aI2
aa(lp798
I18
aI18
aa(lp799
I19
aI10
aI7
aa(lp800
I19
aI11
aI6
aa(lp801
I19
aI12
aI5
aa(lp802
I19
aI13
aI4
aa(lp803
I19
aI14
aI3
aa(lp804
I19
aI16
aI1
aa(lp805
I20
aI8
aI8
aa(lp806
I20
aI10
aI6
aa(lp807
I20
aI11
aI5
aa(lp808
I20
aI12
aI4
aa(lp809
I20
aI12
aI4
aa(lp810
I20
aI13
aI3
aa(lp811
I20
aI14
aI2
aa(lp812
I20
aI14
aI2
aa(lp813
I20
aI15
aI1
aa(lp814
I20
aI16
aa(lp815
I21
aI9
aI6
aa(lp816
I21
aI10
aI5
aa(lp817
I21
aI11
aI4
aa(lp818
I21
aI12
aI3
aa(lp819
I21
aI12
aI3
aa(lp820
I21
aI13
aI2
aa(lp821
I21
aI14
aI1
aa(lp822
I21
aI15
aa(lp823
I22
aI8
aI6
aa(lp824
I22
aI10
aI4
aa(lp825
I22
aI10
aI4
aa(lp826
I22
aI11
aI3
aa(lp827
I22
aI12
aI2
aa(lp828
I22
aI12
aI2
aa(lp829
I22
aI13
aI1
aa(lp830
I22
aI13
aI1
aa(lp831
I22
aI14
aa(lp832
I22
aI14
aa(lp833
I23
aI8
aI5
aa(lp834
I23
aI9
aI4
aa(lp835
I23
aI10
aI3
aa(lp836
I23
aI11
aI2
aa(lp837
I23
aI11
aI2
aa(lp838
I23
aI12
aI1
aa(lp839
I23
aI12
aI1
aa(lp840
I23
aI13
aa(lp841
I24
aI6
aI6
aa(lp842
I24
aI8
aI4
aa(lp843
I24
aI9
aI3
aa(lp844
I24
aI10
aI2
aa(lp845
I24
aI10
aI2
aa(lp846
I24
aI11
aI1
aa(lp847
I24
aI12
aa(lp848
I24
aI12
aa(lp849
I24
aI12
aa(lp850
I25
aI7
aI4
aa(lp851
I25
aI8
aI3
aa(lp852
I25
aI9
aI2
aa(lp853
I25
aI10
aI1
aa(lp854
I25
aI10
aI1
aa(lp855
I25
aI11
aa(lp856
I25
aI11
aa(lp857
I26
aI6
aI4
aa(lp858
I26
aI8
aI2
aa(lp859
I26
aI8
aI2
aa(lp860
I26
aI9
aI1
aa(lp861
I26
aI10
aa(lp862
I26
aI10
aa(lp863
I27
aI6
aI3
aa(lp864
I27
aI7
aI2
aa(lp865
I27
aI8
aI1
aa(lp866
I27
aI9
aa(lp867
I27
aI9
aa(lp868
I28
aI4
aI4
aa(lp869
I28
aI6
aI2
aa(lp870
I28
aI7
aI1
aa(lp871
I28
aI8
aa(lp872
I28
aI8
aa(lp873
I29
aI5
aI2
aa(lp874
I29
aI6
aI1
aa(lp875
I29
aI7
aa(lp876
I30
aI4
aI2
aa(lp877
I30
aI6
aa(lp878
I30
aI6
aa(lp879
I31
aI4
aI1
aa(lp880
I31
aI5
aa(lp881
I32
aI2
aI2
aa(lp882
I32
aI4
aa(lp883
I33
aI3
aa(lp884
I34
aI2
aa(lp885
I36
aas(I3
I2
tp886
(lp887
(lp888
I4
aI2
aa(lp889
I6
aas(I2
I6
tp890
(lp891
(lp892
I2
aI2
aI2
aI2
aI2
aI2
aa(lp893
I4
aI2
aI2
aI2
aI2
aa(lp894
I4
aI4
aI2
aI2
aa(lp895
I4
aI4
aI4
aa(lp896
I6
aI2
aI2
aI2
aa(lp897
I6
aI4
aI2
aa(lp898
I6
aI6
aa(lp899
I8
aI2
aI2
aa(lp900
I8
aI4
aa(lp901
I10
aI2
aa(lp902
I12
aas(I13
I2
tp903
(lp904
(lp905
I14
aI12
aa(lp906
I16
aI10
aa(lp907
I18
aI8
aa(lp908
I20
aI6
aa(lp909
I22
aI4
aa(lp910
I24
aI2
aa(lp911
I26
aas(I8
I2
tp912
(lp913
(lp914
I8
aI8
aa(lp915
I10
aI6
aa(lp916
I12
aI4
aa(lp917
I14
aI2
aa(lp918
I16
aas(I7
I1
tp919
(lp920
(lp921
I7
aas(I4
I5
tp922
(lp923
(lp924
I4
aI4
aI4
aI4
aI4
aa(lp925
I6
aI4
aI4
aI4
aI2
aa(lp926
I6
aI6
aI4
aI2
aI2
aa(lp927
I6
aI6
aI4
aI4
aa(lp928
I6
aI6
aI6
aI2
aa(lp929
I7
aI4
aI4
aI4
aI1
aa(lp930
I7
aI5
aI4
aI3
aI1
aa(lp931
I7
aI6
aI4
aI2
aI1
aa(lp932
I7
aI6
aI4
aI3
aa(lp933
I7
aI6
aI5
aI2
aa(lp934
I7
aI7
aI3
aI3
aa(lp935
I7
aI7
aI4
aI1
aI1
aa(lp936
I7
aI7
aI5
aI1
aa(lp937
I8
aI4
aI4
aI2
aI2
aa(lp938
I8
aI4
aI4
aI4
aa(lp939
I8
aI4
aI4
aI4
aa(lp940
I8
aI5
aI4
aI2
aI1
aa(lp941
I8
aI5
aI4
aI3
aa(lp942
I8
aI5
aI5
aI1
aI1
aa(lp943
I8
aI6
aI2
aI2
aI2
aa(lp944
I8
aI6
aI3
aI2
aI1
aa(lp945
I8
aI6
aI4
aI2
aa(lp946
I8
aI6
aI4
aI2
aa(lp947
I8
aI6
aI4
aI2
aa(lp948
I8
aI6
aI5
aI1
aa(lp949
I8
aI6
aI6
aa(lp950
I8
aI6
aI6
aa(lp951
I8
aI7
aI3
aI1
aI1
aa(lp952
I8
aI7
aI3
aI2
aa(lp953
I8
aI7
aI4
aI1
aa(lp954
I8
aI7
aI4
aI1
aa(lp955
I8
aI8
aI2
aI2
aa(lp956
I8
aI8
aI2
aI2
aa(lp957
I8
aI8
aI4
aa(lp958
I8
aI8
aI4
aa(lp959
I9
aI4
aI4
aI2
aI1
aa(lp960
I9
aI4
aI4
aI3
aa(lp961
I9
aI5
aI3
aI2
aI1
aa(lp962
I9
aI5
aI4
aI1
aI1
aa(lp963
I9
aI5
aI4
aI2
aa(lp964
I9
aI5
aI4
aI2
aa(lp965
I9
aI6
aI2
aI2
aI1
aa(lp966
I9
aI6
aI3
aI2
aa(lp967
I9
aI6
aI3
aI2
aa(lp968
I9
aI6
aI4
aI1
aa(lp969
I9
aI6
aI4
aI1
aa(lp970
I9
aI6
aI4
aI1
aa(lp971
I9
aI6
aI5
aa(lp972
I9
aI7
aI2
aI1
aI1
aa(lp973
I9
aI7
aI2
aI2
aa(lp974
I9
aI7
aI3
aI1
aa(lp975
I9
aI7
aI3
aI1
aa(lp976
I9
aI7
aI4
aa(lp977
I9
aI8
aI2
aI1
aa(lp978
I9
aI8
aI3
aa(lp979
I10
aI4
aI2
aI2
aI2
aa(lp980
I10
aI4
aI4
aI2
aa(lp981
I10
aI4
aI4
aI2
aa(lp982
I10
aI4
aI4
aI2
aa(lp983
I10
aI5
aI2
aI2
aI1
aa(lp984
I10
aI5
aI3
aI1
aI1
aa(lp985
I10
aI5
aI3
aI2
aa(lp986
I10
aI5
aI4
aI1
aa(lp987
I10
aI5
aI4
aI1
aa(lp988
I10
aI6
aI2
aI2
aa(lp989
I10
aI6
aI2
aI2
aa(lp990
I10
aI6
aI2
aI2
aa(lp991
I10
aI6
aI3
aI1
aa(lp992
I10
aI6
aI3
aI1
aa(lp993
I10
aI6
aI4
aa(lp994
I10
aI6
aI4
aa(lp995
I10
aI6
aI4
aa(lp996
I10
aI6
aI4
aa(lp997
I10
aI7
aI2
aI1
aa(lp998
I10
aI7
aI2
aI1
aa(lp999
I10
aI7
aI3
aa(lp1000
I10
aI7
aI3
aa(lp1001
I10
aI8
aI2
aa(lp1002
I10
aI8
aI2
aa(lp1003
I10
aI8
aI2
aa(lp1004
I10
aI9
aI1
aa(lp1005
I10
aI10
aa(lp1006
I11
aI4
aI2
aI2
aI1
aa(lp1007
I11
aI4
aI3
aI2
aa(lp1008
I11
aI4
aI4
aI1
aa(lp1009
I11
aI4
aI4
aI1
aa(lp1010
I11
aI5
aI2
aI2
aa(lp1011
I11
aI5
aI2
aI2
aa(lp1012
I11
aI5
aI3
aI1
aa(lp1013
I11
aI5
aI3
aI1
aa(lp1014
I11
aI5
aI4
aa(lp1015
I11
aI6
aI2
aI1
aa(lp1016
I11
aI6
aI2
aI1
aa(lp1017
I11
aI6
aI3
aa(lp1018
I11
aI6
aI3
aa(lp1019
I11
aI6
aI3
aa(lp1020
I11
aI7
aI1
aI1
aa(lp1021
I11
aI7
aI2
aa(lp1022
I11
aI7
aI2
aa(lp1023
I11
aI8
aI1
aa(lp1024
I12
aI2
aI2
aI2
aI2
aa(lp1025
I12
aI4
aI2
aI2
aa(lp1026
I12
aI4
aI2
aI2
aa(lp1027
I12
aI4
aI3
aI1
aa(lp1028
I12
aI4
aI4
aa(lp1029
I12
aI4
aI4
aa(lp1030
I12
aI4
aI4
aa(lp1031
I12
aI5
aI2
aI1
aa(lp1032
I12
aI5
aI2
aI1
aa(lp1033
I12
aI5
aI3
aa(lp1034
I12
aI6
aI2
aa(lp1035
I12
aI6
aI2
aa(lp1036
I12
aI6
aI2
aa(lp1037
I12
aI6
aI2
aa(lp1038
I12
aI7
aI1
aa(lp1039
I12
aI8
aa(lp1040
I12
aI8
aa(lp1041
I13
aI3
aI2
aI2
aa(lp1042
I13
aI4
aI2
aI1
aa(lp1043
I13
aI4
aI3
aa(lp1044
I13
aI4
aI3
aa(lp1045
I13
aI5
aI2
aa(lp1046
I13
aI5
aI2
aa(lp1047
I13
aI6
aI1
aa(lp1048
I13
aI6
aI1
aa(lp1049
I13
aI7
aa(lp1050
I14
aI2
aI2
aI2
aa(lp1051
I14
aI4
aI2
aa(lp1052
I14
aI4
aI2
aa(lp1053
I14
aI4
aI2
aa(lp1054
I14
aI5
aI1
aa(lp1055
I14
aI6
aa(lp1056
I14
aI6
aa(lp1057
I15
aI3
aI2
aa(lp1058
I15
aI4
aI1
aa(lp1059
I15
aI5
aa(lp1060
I16
aI2
aI2
aa(lp1061
I16
aI4
aa(lp1062
I16
aI4
aa(lp1063
I17
aI3
aa(lp1064
I18
aI2
aa(lp1065
I20
aas(I15
I3
tp1066
(lp1067
(lp1068
I16
aI16
aI13
aa(lp1069
I17
aI14
aI14
aa(lp1070
I18
aI15
aI12
aa(lp1071
I18
aI16
aI11
aa(lp1072
I18
aI18
aI9
aa(lp1073
I19
aI14
aI12
aa(lp1074
I19
aI16
aI10
aa(lp1075
I20
aI14
aI11
aa(lp1076
I20
aI15
aI10
aa(lp1077
I20
aI16
aI9
aa(lp1078
I20
aI17
aI8
aa(lp1079
I20
aI18
aI7
aa(lp1080
I20
aI20
aI5
aa(lp1081
I21
aI12
aI12
aa(lp1082
I21
aI14
aI10
aa(lp1083
I21
aI15
aI9
aa(lp1084
I21
aI16
aI8
aa(lp1085
I21
aI18
aI6
aa(lp1086
I22
aI13
aI10
aa(lp1087
I22
aI14
aI9
aa(lp1088
I22
aI15
aI8
aa(lp1089
I22
aI16
aI7
aa(lp1090
I22
aI16
aI7
aa(lp1091
I22
aI17
aI6
aa(lp1092
I22
aI18
aI5
aa(lp1093
I22
aI19
aI4
aa(lp1094
I22
aI20
aI3
aa(lp1095
I22
aI22
aI1
aa(lp1096
I23
aI12
aI10
aa(lp1097
I23
aI14
aI8
aa(lp1098
I23
aI14
aI8
aa(lp1099
I23
aI15
aI7
aa(lp1100
I23
aI16
aI6
aa(lp1101
I23
aI17
aI5
aa(lp1102
I23
aI18
aI4
aa(lp1103
I23
aI20
aI2
aa(lp1104
I24
aI12
aI9
aa(lp1105
I24
aI13
aI8
aa(lp1106
I24
aI14
aI7
aa(lp1107
I24
aI15
aI6
aa(lp1108
I24
aI15
aI6
aa(lp1109
I24
aI16
aI5
aa(lp1110
I24
aI16
aI5
aa(lp1111
I24
aI17
aI4
aa(lp1112
I24
aI18
aI3
aa(lp1113
I24
aI18
aI3
aa(lp1114
I24
aI19
aI2
aa(lp1115
I24
aI20
aI1
aa(lp1116
I24
aI21
aa(lp1117
I25
aI10
aI10
aa(lp1118
I25
aI12
aI8
aa(lp1119
I25
aI13
aI7
aa(lp1120
I25
aI14
aI6
aa(lp1121
I25
aI14
aI6
aa(lp1122
I25
aI15
aI5
aa(lp1123
I25
aI16
aI4
aa(lp1124
I25
aI16
aI4
aa(lp1125
I25
aI17
aI3
aa(lp1126
I25
aI18
aI2
aa(lp1127
I25
aI19
aI1
aa(lp1128
I25
aI20
aa(lp1129
I26
aI11
aI8
aa(lp1130
I26
aI12
aI7
aa(lp1131
I26
aI13
aI6
aa(lp1132
I26
aI14
aI5
aa(lp1133
I26
aI14
aI5
aa(lp1134
I26
aI15
aI4
aa(lp1135
I26
aI15
aI4
aa(lp1136
I26
aI16
aI3
aa(lp1137
I26
aI16
aI3
aa(lp1138
I26
aI17
aI2
aa(lp1139
I26
aI17
aI2
aa(lp1140
I26
aI18
aI1
aa(lp1141
I26
aI18
aI1
aa(lp1142
I26
aI19
aa(lp1143
I27
aI10
aI8
aa(lp1144
I27
aI12
aI6
aa(lp1145
I27
aI12
aI6
aa(lp1146
I27
aI13
aI5
aa(lp1147
I27
aI14
aI4
aa(lp1148
I27
aI14
aI4
aa(lp1149
I27
aI15
aI3
aa(lp1150
I27
aI15
aI3
aa(lp1151
I27
aI16
aI2
aa(lp1152
I27
aI16
aI2
aa(lp1153
I27
aI17
aI1
aa(lp1154
I27
aI18
aa(lp1155
I27
aI18
aa(lp1156
I28
aI10
aI7
aa(lp1157
I28
aI11
aI6
aa(lp1158
I28
aI12
aI5
aa(lp1159
I28
aI13
aI4
aa(lp1160
I28
aI13
aI4
aa(lp1161
I28
aI14
aI3
aa(lp1162
I28
aI14
aI3
aa(lp1163
I28
aI15
aI2
aa(lp1164
I28
aI15
aI2
aa(lp1165
I28
aI16
aI1
aa(lp1166
I28
aI16
aI1
aa(lp1167
I28
aI16
aI1
aa(lp1168
I28
aI17
aa(lp1169
I28
aI17
aa(lp1170
I29
aI8
aI8
aa(lp1171
I29
aI10
aI6
aa(lp1172
I29
aI11
aI5
aa(lp1173
I29
aI12
aI4
aa(lp1174
I29
aI12
aI4
aa(lp1175
I29
aI13
aI3
aa(lp1176
I29
aI14
aI2
aa(lp1177
I29
aI14
aI2
aa(lp1178
I29
aI14
aI2
aa(lp1179
I29
aI15
aI1
aa(lp1180
I29
aI15
aI1
aa(lp1181
I29
aI16
aa(lp1182
I29
aI16
aa(lp1183
I30
aI9
aI6
aa(lp1184
I30
aI10
aI5
aa(lp1185
I30
aI11
aI4
aa(lp1186
I30
aI12
aI3
aa(lp1187
I30
aI12
aI3
aa(lp1188
I30
aI13
aI2
aa(lp1189
I30
aI13
aI2
aa(lp1190
I30
aI14
aI1
aa(lp1191
I30
aI14
aI1
aa(lp1192
I30
aI15
aa(lp1193
I30
aI15
aa(lp1194
I30
aI15
aa(lp1195
I31
aI8
aI6
aa(lp1196
I31
aI10
aI4
aa(lp1197
I31
aI10
aI4
aa(lp1198
I31
aI11
aI3
aa(lp1199
I31
aI12
aI2
aa(lp1200
I31
aI12
aI2
aa(lp1201
I31
aI13
aI1
aa(lp1202
I31
aI13
aI1
aa(lp1203
I31
aI14
aa(lp1204
I31
aI14
aa(lp1205
I31
aI14
aa(lp1206
I32
aI8
aI5
aa(lp1207
I32
aI9
aI4
aa(lp1208
I32
aI10
aI3
aa(lp1209
I32
aI11
aI2
aa(lp1210
I32
aI11
aI2
aa(lp1211
I32
aI12
aI1
aa(lp1212
I32
aI12
aI1
aa(lp1213
I32
aI13
aa(lp1214
I32
aI13
aa(lp1215
I33
aI6
aI6
aa(lp1216
I33
aI8
aI4
aa(lp1217
I33
aI9
aI3
aa(lp1218
I33
aI10
aI2
aa(lp1219
I33
aI10
aI2
aa(lp1220
I33
aI11
aI1
aa(lp1221
I33
aI12
aa(lp1222
I33
aI12
aa(lp1223
I33
aI12
aa(lp1224
I34
aI7
aI4
aa(lp1225
I34
aI8
aI3
aa(lp1226
I34
aI9
aI2
aa(lp1227
I34
aI10
aI1
aa(lp1228
I34
aI10
aI1
aa(lp1229
I34
aI11
aa(lp1230
I34
aI11
aa(lp1231
I35
aI6
aI4
aa(lp1232
I35
aI8
aI2
aa(lp1233
I35
aI8
aI2
aa(lp1234
I35
aI9
aI1
aa(lp1235
I35
aI10
aa(lp1236
I35
aI10
aa(lp1237
I36
aI6
aI3
aa(lp1238
I36
aI7
aI2
aa(lp1239
I36
aI8
aI1
aa(lp1240
I36
aI9
aa(lp1241
I36
aI9
aa(lp1242
I37
aI4
aI4
aa(lp1243
I37
aI6
aI2
aa(lp1244
I37
aI7
aI1
aa(lp1245
I37
aI8
aa(lp1246
I37
aI8
aa(lp1247
I38
aI5
aI2
aa(lp1248
I38
aI6
aI1
aa(lp1249
I38
aI7
aa(lp1250
I39
aI4
aI2
aa(lp1251
I39
aI6
aa(lp1252
I39
aI6
aa(lp1253
I40
aI4
aI1
aa(lp1254
I40
aI5
aa(lp1255
I41
aI2
aI2
aa(lp1256
I41
aI4
aa(lp1257
I42
aI3
aa(lp1258
I43
aI2
aa(lp1259
I45
aas(I9
I3
tp1260
(lp1261
(lp1262
I10
aI10
aI7
aa(lp1263
I11
aI8
aI8
aa(lp1264
I12
aI9
aI6
aa(lp1265
I12
aI10
aI5
aa(lp1266
I12
aI12
aI3
aa(lp1267
I13
aI8
aI6
aa(lp1268
I13
aI10
aI4
aa(lp1269
I14
aI8
aI5
aa(lp1270
I14
aI9
aI4
aa(lp1271
I14
aI10
aI3
aa(lp1272
I14
aI11
aI2
aa(lp1273
I14
aI12
aI1
aa(lp1274
I15
aI6
aI6
aa(lp1275
I15
aI8
aI4
aa(lp1276
I15
aI9
aI3
aa(lp1277
I15
aI10
aI2
aa(lp1278
I15
aI12
aa(lp1279
I16
aI7
aI4
aa(lp1280
I16
aI8
aI3
aa(lp1281
I16
aI9
aI2
aa(lp1282
I16
aI10
aI1
aa(lp1283
I16
aI10
aI1
aa(lp1284
I16
aI11
aa(lp1285
I17
aI6
aI4
aa(lp1286
I17
aI8
aI2
aa(lp1287
I17
aI8
aI2
aa(lp1288
I17
aI9
aI1
aa(lp1289
I17
aI10
aa(lp1290
I18
aI6
aI3
aa(lp1291
I18
aI7
aI2
aa(lp1292
I18
aI8
aI1
aa(lp1293
I18
aI9
aa(lp1294
I18
aI9
aa(lp1295
I19
aI4
aI4
aa(lp1296
I19
aI6
aI2
aa(lp1297
I19
aI7
aI1
aa(lp1298
I19
aI8
aa(lp1299
I19
aI8
aa(lp1300
I20
aI5
aI2
aa(lp1301
I20
aI6
aI1
aa(lp1302
I20
aI7
aa(lp1303
I21
aI4
aI2
aa(lp1304
I21
aI6
aa(lp1305
I21
aI6
aa(lp1306
I22
aI4
aI1
aa(lp1307
I22
aI5
aa(lp1308
I23
aI2
aI2
aa(lp1309
I23
aI4
aa(lp1310
I24
aI3
aa(lp1311
I25
aI2
aa(lp1312
I27
aas(I2
I10
tp1313
(lp1314
(lp1315
I2
aI2
aI2
aI2
aI2
aI2
aI2
aI2
aI2
aI2
aa(lp1316
I4
aI2
aI2
aI2
aI2
aI2
aI2
aI2
aI2
aa(lp1317
I4
aI4
aI2
aI2
aI2
aI2
aI2
aI2
aa(lp1318
I4
aI4
aI4
aI2
aI2
aI2
aI2
aa(lp1319
I4
aI4
aI4
aI4
aI2
aI2
aa(lp1320
I4
aI4
aI4
aI4
aI4
aa(lp1321
I6
aI2
aI2
aI2
aI2
aI2
aI2
aI2
aa(lp1322
I6
aI4
aI2
aI2
aI2
aI2
aI2
aa(lp1323
I6
aI4
aI4
aI2
aI2
aI2
aa(lp1324
I6
aI4
aI4
aI4
aI2
aa(lp1325
I6
aI6
aI2
aI2
aI2
aI2
aa(lp1326
I6
aI6
aI4
aI2
aI2
aa(lp1327
I6
aI6
aI4
aI4
aa(lp1328
I6
aI6
aI6
aI2
aa(lp1329
I8
aI2
aI2
aI2
aI2
aI2
aI2
aa(lp1330
I8
aI4
aI2
aI2
aI2
aI2
aa(lp1331
I8
aI4
aI4
aI2
aI2
aa(lp1332
I8
aI4
aI4
aI4
aa(lp1333
I8
aI6
aI2
aI2
aI2
aa(lp1334
I8
aI6
aI4
aI2
aa(lp1335
I8
aI6
aI6
aa(lp1336
I8
aI8
aI2
aI2
aa(lp1337
I8
aI8
aI4
aa(lp1338
I10
aI2
aI2
aI2
aI2
aI2
aa(lp1339
I10
aI4
aI2
aI2
aI2
aa(lp1340
I10
aI4
aI4
aI2
aa(lp1341
I10
aI6
aI2
aI2
aa(lp1342
I10
aI6
aI4
aa(lp1343
I10
aI8
aI2
aa(lp1344
I10
aI10
aa(lp1345
I12
aI2
aI2
aI2
aI2
aa(lp1346
I12
aI4
aI2
aI2
aa(lp1347
I12
aI4
aI4
aa(lp1348
I12
aI6
aI2
aa(lp1349
I12
aI8
aa(lp1350
I14
aI2
aI2
aI2
aa(lp1351
I14
aI4
aI2
aa(lp1352
I14
aI6
aa(lp1353
I16
aI2
aI2
aa(lp1354
I16
aI4
aa(lp1355
I18
aI2
aa(lp1356
I20
aas(I2
I3
tp1357
(lp1358
(lp1359
I2
aI2
aI2
aa(lp1360
I4
aI2
aa(lp1361
I6
aas(I10
I1
tp1362
(lp1363
(lp1364
I10
aas(I5
I4
tp1365
(lp1366
(lp1367
I6
aI6
aI6
aI2
aa(lp1368
I7
aI6
aI4
aI3
aa(lp1369
I8
aI4
aI4
aI4
aa(lp1370
I8
aI6
aI4
aI2
aa(lp1371
I8
aI6
aI5
aI1
aa(lp1372
I8
aI6
aI6
aa(lp1373
I8
aI7
aI4
aI1
aa(lp1374
I8
aI8
aI2
aI2
aa(lp1375
I8
aI8
aI4
aa(lp1376
I9
aI5
aI4
aI2
aa(lp1377
I9
aI6
aI3
aI2
aa(lp1378
I9
aI6
aI4
aI1
aa(lp1379
I9
aI6
aI5
aa(lp1380
I9
aI7
aI3
aI1
aa(lp1381
I9
aI7
aI4
aa(lp1382
I9
aI8
aI2
aI1
aa(lp1383
I9
aI8
aI3
aa(lp1384
I10
aI4
aI4
aI2
aa(lp1385
I10
aI5
aI4
aI1
aa(lp1386
I10
aI6
aI2
aI2
aa(lp1387
I10
aI6
aI3
aI1
aa(lp1388
I10
aI6
aI4
aa(lp1389
I10
aI6
aI4
aa(lp1390
I10
aI6
aI4
aa(lp1391
I10
aI7
aI2
aI1
aa(lp1392
I10
aI7
aI3
aa(lp1393
I10
aI8
aI2
aa(lp1394
I10
aI8
aI2
aa(lp1395
I10
aI9
aI1
aa(lp1396
I10
aI10
aa(lp1397
I11
aI4
aI4
aI1
aa(lp1398
I11
aI5
aI2
aI2
aa(lp1399
I11
aI5
aI3
aI1
aa(lp1400
I11
aI5
aI4
aa(lp1401
I11
aI6
aI2
aI1
aa(lp1402
I11
aI6
aI3
aa(lp1403
I11
aI6
aI3
aa(lp1404
I11
aI7
aI1
aI1
aa(lp1405
I11
aI7
aI2
aa(lp1406
I11
aI7
aI2
aa(lp1407
I11
aI8
aI1
aa(lp1408
I12
aI4
aI2
aI2
aa(lp1409
I12
aI4
aI4
aa(lp1410
I12
aI4
aI4
aa(lp1411
I12
aI5
aI2
aI1
aa(lp1412
I12
aI5
aI3
aa(lp1413
I12
aI6
aI2
aa(lp1414
I12
aI6
aI2
aa(lp1415
I12
aI6
aI2
aa(lp1416
I12
aI7
aI1
aa(lp1417
I12
aI8
aa(lp1418
I12
aI8
aa(lp1419
I13
aI4
aI2
aI1
aa(lp1420
I13
aI4
aI3
aa(lp1421
I13
aI5
aI2
aa(lp1422
I13
aI5
aI2
aa(lp1423
I13
aI6
aI1
aa(lp1424
I13
aI6
aI1
aa(lp1425
I13
aI7
aa(lp1426
I14
aI2
aI2
aI2
aa(lp1427
I14
aI4
aI2
aa(lp1428
I14
aI4
aI2
aa(lp1429
I14
aI5
aI1
aa(lp1430
I14
aI6
aa(lp1431
I14
aI6
aa(lp1432
I15
aI3
aI2
aa(lp1433
I15
aI4
aI1
aa(lp1434
I15
aI5
aa(lp1435
I16
aI2
aI2
aa(lp1436
I16
aI4
aa(lp1437
I16
aI4
aa(lp1438
I17
aI3
aa(lp1439
I18
aI2
aa(lp1440
I20
aas(I4
I2
tp1441
(lp1442
(lp1443
I4
aI4
aa(lp1444
I6
aI2
aa(lp1445
I8
aas(I14
I2
tp1446
(lp1447
(lp1448
I14
aI14
aa(lp1449
I16
aI12
aa(lp1450
I18
aI10
aa(lp1451
I20
aI8
aa(lp1452
I22
aI6
aa(lp1453
I24
aI4
aa(lp1454
I26
aI2
aa(lp1455
I28
aas(I5
I3
tp1456
(lp1457
(lp1458
I6
aI6
aI3
aa(lp1459
I7
aI4
aI4
aa(lp1460
I8
aI5
aI2
aa(lp1461
I8
aI6
aI1
aa(lp1462
I9
aI4
aI2
aa(lp1463
I9
aI6
aa(lp1464
I10
aI4
aI1
aa(lp1465
I10
aI5
aa(lp1466
I11
aI2
aI2
aa(lp1467
I11
aI4
aa(lp1468
I12
aI3
aa(lp1469
I13
aI2
aa(lp1470
I15
aas(I2
I7
tp1471
(lp1472
(lp1473
I2
aI2
aI2
aI2
aI2
aI2
aI2
aa(lp1474
I4
aI2
aI2
aI2
aI2
aI2
aa(lp1475
I4
aI4
aI2
aI2
aI2
aa(lp1476
I4
aI4
aI4
aI2
aa(lp1477
I6
aI2
aI2
aI2
aI2
aa(lp1478
I6
aI4
aI2
aI2
aa(lp1479
I6
aI4
aI4
aa(lp1480
I6
aI6
aI2
aa(lp1481
I8
aI2
aI2
aI2
aa(lp1482
I8
aI4
aI2
aa(lp1483
I8
aI6
aa(lp1484
I10
aI2
aI2
aa(lp1485
I10
aI4
aa(lp1486
I12
aI2
aa(lp1487
I14
aas(I13
I1
tp1488
(lp1489
(lp1490
I13
aas(I8
I3
tp1491
(lp1492
(lp1493
I8
aI8
aI8
aa(lp1494
I10
aI8
aI6
aa(lp1495
I10
aI10
aI4
aa(lp1496
I11
aI8
aI5
aa(lp1497
I12
aI6
aI6
aa(lp1498
I12
aI8
aI4
aa(lp1499
I12
aI9
aI3
aa(lp1500
I12
aI10
aI2
aa(lp1501
I12
aI12
aa(lp1502
I13
aI7
aI4
aa(lp1503
I13
aI8
aI3
aa(lp1504
I13
aI10
aI1
aa(lp1505
I14
aI6
aI4
aa(lp1506
I14
aI8
aI2
aa(lp1507
I14
aI8
aI2
aa(lp1508
I14
aI9
aI1
aa(lp1509
I14
aI10
aa(lp1510
I15
aI6
aI3
aa(lp1511
I15
aI7
aI2
aa(lp1512
I15
aI8
aI1
aa(lp1513
I15
aI9
aa(lp1514
I16
aI4
aI4
aa(lp1515
I16
aI6
aI2
aa(lp1516
I16
aI7
aI1
aa(lp1517
I16
aI8
aa(lp1518
I16
aI8
aa(lp1519
I17
aI5
aI2
aa(lp1520
I17
aI6
aI1
aa(lp1521
I17
aI7
aa(lp1522
I18
aI4
aI2
aa(lp1523
I18
aI6
aa(lp1524
I18
aI6
aa(lp1525
I19
aI4
aI1
aa(lp1526
I19
aI5
aa(lp1527
I20
aI2
aI2
aa(lp1528
I20
aI4
aa(lp1529
I21
aI3
aa(lp1530
I22
aI2
aa(lp1531
I24
aas(I15
I2
tp1532
(lp1533
(lp1534
I16
aI14
aa(lp1535
I18
aI12
aa(lp1536
I20
aI10
aa(lp1537
I22
aI8
aa(lp1538
I24
aI6
aa(lp1539
I26
aI4
aa(lp1540
I28
aI2
aa(lp1541
I30
aas(I9
I2
tp1542
(lp1543
(lp1544
I10
aI8
aa(lp1545
I12
aI6
aa(lp1546
I14
aI4
aa(lp1547
I16
aI2
aa(lp1548
I18
aas(I5
I2
tp1549
(lp1550
(lp1551
I6
aI4
aa(lp1552
I8
aI2
aa(lp1553
I10
aas(I6
I1
tp1554
(lp1555
(lp1556
I6
aas(I3
I1
tp1557
(lp1558
(lp1559
I3
aas(I11
I3
tp1560
(lp1561
(lp1562
I12
aI12
aI9
aa(lp1563
I13
aI10
aI10
aa(lp1564
I14
aI11
aI8
aa(lp1565
I14
aI12
aI7
aa(lp1566
I14
aI14
aI5
aa(lp1567
I15
aI10
aI8
aa(lp1568
I15
aI12
aI6
aa(lp1569
I16
aI10
aI7
aa(lp1570
I16
aI11
aI6
aa(lp1571
I16
aI12
aI5
aa(lp1572
I16
aI13
aI4
aa(lp1573
I16
aI14
aI3
aa(lp1574
I16
aI16
aI1
aa(lp1575
I17
aI8
aI8
aa(lp1576
I17
aI10
aI6
aa(lp1577
I17
aI11
aI5
aa(lp1578
I17
aI12
aI4
aa(lp1579
I17
aI14
aI2
aa(lp1580
I18
aI9
aI6
aa(lp1581
I18
aI10
aI5
aa(lp1582
I18
aI11
aI4
aa(lp1583
I18
aI12
aI3
aa(lp1584
I18
aI12
aI3
aa(lp1585
I18
aI13
aI2
aa(lp1586
I18
aI14
aI1
aa(lp1587
I18
aI15
aa(lp1588
I19
aI8
aI6
aa(lp1589
I19
aI10
aI4
aa(lp1590
I19
aI10
aI4
aa(lp1591
I19
aI11
aI3
aa(lp1592
I19
aI12
aI2
aa(lp1593
I19
aI13
aI1
aa(lp1594
I19
aI14
aa(lp1595
I20
aI8
aI5
aa(lp1596
I20
aI9
aI4
aa(lp1597
I20
aI10
aI3
aa(lp1598
I20
aI11
aI2
aa(lp1599
I20
aI11
aI2
aa(lp1600
I20
aI12
aI1
aa(lp1601
I20
aI12
aI1
aa(lp1602
I20
aI13
aa(lp1603
I21
aI6
aI6
aa(lp1604
I21
aI8
aI4
aa(lp1605
I21
aI9
aI3
aa(lp1606
I21
aI10
aI2
aa(lp1607
I21
aI10
aI2
aa(lp1608
I21
aI11
aI1
aa(lp1609
I21
aI12
aa(lp1610
I21
aI12
aa(lp1611
I22
aI7
aI4
aa(lp1612
I22
aI8
aI3
aa(lp1613
I22
aI9
aI2
aa(lp1614
I22
aI10
aI1
aa(lp1615
I22
aI10
aI1
aa(lp1616
I22
aI11
aa(lp1617
I22
aI11
aa(lp1618
I23
aI6
aI4
aa(lp1619
I23
aI8
aI2
aa(lp1620
I23
aI8
aI2
aa(lp1621
I23
aI9
aI1
aa(lp1622
I23
aI10
aa(lp1623
I23
aI10
aa(lp1624
I24
aI6
aI3
aa(lp1625
I24
aI7
aI2
aa(lp1626
I24
aI8
aI1
aa(lp1627
I24
aI9
aa(lp1628
I24
aI9
aa(lp1629
I25
aI4
aI4
aa(lp1630
I25
aI6
aI2
aa(lp1631
I25
aI7
aI1
aa(lp1632
I25
aI8
aa(lp1633
I25
aI8
aa(lp1634
I26
aI5
aI2
aa(lp1635
I26
aI6
aI1
aa(lp1636
I26
aI7
aa(lp1637
I27
aI4
aI2
aa(lp1638
I27
aI6
aa(lp1639
I27
aI6
aa(lp1640
I28
aI4
aI1
aa(lp1641
I28
aI5
aa(lp1642
I29
aI2
aI2
aa(lp1643
I29
aI4
aa(lp1644
I30
aI3
aa(lp1645
I31
aI2
aa(lp1646
I33
aas(I16
I1
tp1647
(lp1648
(lp1649
I16
aas(I4
I3
tp1650
(lp1651
(lp1652
I4
aI4
aI4
aa(lp1653
I6
aI4
aI2
aa(lp1654
I6
aI6
aa(lp1655
I7
aI4
aI1
aa(lp1656
I8
aI2
aI2
aa(lp1657
I8
aI4
aa(lp1658
I9
aI3
aa(lp1659
I10
aI2
aa(lp1660
I12
aas(I14
I3
tp1661
(lp1662
(lp1663
I14
aI14
aI14
aa(lp1664
I16
aI14
aI12
aa(lp1665
I16
aI16
aI10
aa(lp1666
I17
aI14
aI11
aa(lp1667
I18
aI12
aI12
aa(lp1668
I18
aI14
aI10
aa(lp1669
I18
aI15
aI9
aa(lp1670
I18
aI16
aI8
aa(lp1671
I18
aI18
aI6
aa(lp1672
I19
aI13
aI10
aa(lp1673
I19
aI14
aI9
aa(lp1674
I19
aI16
aI7
aa(lp1675
I20
aI12
aI10
aa(lp1676
I20
aI14
aI8
aa(lp1677
I20
aI14
aI8
aa(lp1678
I20
aI15
aI7
aa(lp1679
I20
aI16
aI6
aa(lp1680
I20
aI17
aI5
aa(lp1681
I20
aI18
aI4
aa(lp1682
I20
aI20
aI2
aa(lp1683
I21
aI12
aI9
aa(lp1684
I21
aI13
aI8
aa(lp1685
I21
aI14
aI7
aa(lp1686
I21
aI15
aI6
aa(lp1687
I21
aI16
aI5
aa(lp1688
I21
aI18
aI3
aa(lp1689
I22
aI10
aI10
aa(lp1690
I22
aI12
aI8
aa(lp1691
I22
aI13
aI7
aa(lp1692
I22
aI14
aI6
aa(lp1693
I22
aI14
aI6
aa(lp1694
I22
aI15
aI5
aa(lp1695
I22
aI16
aI4
aa(lp1696
I22
aI16
aI4
aa(lp1697
I22
aI17
aI3
aa(lp1698
I22
aI18
aI2
aa(lp1699
I22
aI19
aI1
aa(lp1700
I22
aI20
aa(lp1701
I23
aI11
aI8
aa(lp1702
I23
aI12
aI7
aa(lp1703
I23
aI13
aI6
aa(lp1704
I23
aI14
aI5
aa(lp1705
I23
aI14
aI5
aa(lp1706
I23
aI15
aI4
aa(lp1707
I23
aI16
aI3
aa(lp1708
I23
aI17
aI2
aa(lp1709
I23
aI18
aI1
aa(lp1710
I24
aI10
aI8
aa(lp1711
I24
aI12
aI6
aa(lp1712
I24
aI12
aI6
aa(lp1713
I24
aI13
aI5
aa(lp1714
I24
aI14
aI4
aa(lp1715
I24
aI14
aI4
aa(lp1716
I24
aI15
aI3
aa(lp1717
I24
aI15
aI3
aa(lp1718
I24
aI16
aI2
aa(lp1719
I24
aI16
aI2
aa(lp1720
I24
aI17
aI1
aa(lp1721
I24
aI18
aa(lp1722
I24
aI18
aa(lp1723
I25
aI10
aI7
aa(lp1724
I25
aI11
aI6
aa(lp1725
I25
aI12
aI5
aa(lp1726
I25
aI13
aI4
aa(lp1727
I25
aI13
aI4
aa(lp1728
I25
aI14
aI3
aa(lp1729
I25
aI14
aI3
aa(lp1730
I25
aI15
aI2
aa(lp1731
I25
aI16
aI1
aa(lp1732
I25
aI16
aI1
aa(lp1733
I25
aI17
aa(lp1734
I26
aI8
aI8
aa(lp1735
I26
aI10
aI6
aa(lp1736
I26
aI11
aI5
aa(lp1737
I26
aI12
aI4
aa(lp1738
I26
aI12
aI4
aa(lp1739
I26
aI13
aI3
aa(lp1740
I26
aI14
aI2
aa(lp1741
I26
aI14
aI2
aa(lp1742
I26
aI14
aI2
aa(lp1743
I26
aI15
aI1
aa(lp1744
I26
aI15
aI1
aa(lp1745
I26
aI16
aa(lp1746
I26
aI16
aa(lp1747
I27
aI9
aI6
aa(lp1748
I27
aI10
aI5
aa(lp1749
I27
aI11
aI4
aa(lp1750
I27
aI12
aI3
aa(lp1751
I27
aI12
aI3
aa(lp1752
I27
aI13
aI2
aa(lp1753
I27
aI13
aI2
aa(lp1754
I27
aI14
aI1
aa(lp1755
I27
aI14
aI1
aa(lp1756
I27
aI15
aa(lp1757
I27
aI15
aa(lp1758
I28
aI8
aI6
aa(lp1759
I28
aI10
aI4
aa(lp1760
I28
aI10
aI4
aa(lp1761
I28
aI11
aI3
aa(lp1762
I28
aI12
aI2
aa(lp1763
I28
aI12
aI2
aa(lp1764
I28
aI13
aI1
aa(lp1765
I28
aI13
aI1
aa(lp1766
I28
aI14
aa(lp1767
I28
aI14
aa(lp1768
I28
aI14
aa(lp1769
I29
aI8
aI5
aa(lp1770
I29
aI9
aI4
aa(lp1771
I29
aI10
aI3
aa(lp1772
I29
aI11
aI2
aa(lp1773
I29
aI11
aI2
aa(lp1774
I29
aI12
aI1
aa(lp1775
I29
aI12
aI1
aa(lp1776
I29
aI13
aa(lp1777
I29
aI13
aa(lp1778
I30
aI6
aI6
aa(lp1779
I30
aI8
aI4
aa(lp1780
I30
aI9
aI3
aa(lp1781
I30
aI10
aI2
aa(lp1782
I30
aI10
aI2
aa(lp1783
I30
aI11
aI1
aa(lp1784
I30
aI12
aa(lp1785
I30
aI12
aa(lp1786
I30
aI12
aa(lp1787
I31
aI7
aI4
aa(lp1788
I31
aI8
aI3
aa(lp1789
I31
aI9
aI2
aa(lp1790
I31
aI10
aI1
aa(lp1791
I31
aI10
aI1
aa(lp1792
I31
aI11
aa(lp1793
I31
aI11
aa(lp1794
I32
aI6
aI4
aa(lp1795
I32
aI8
aI2
aa(lp1796
I32
aI8
aI2
aa(lp1797
I32
aI9
aI1
aa(lp1798
I32
aI10
aa(lp1799
I32
aI10
aa(lp1800
I33
aI6
aI3
aa(lp1801
I33
aI7
aI2
aa(lp1802
I33
aI8
aI1
aa(lp1803
I33
aI9
aa(lp1804
I33
aI9
aa(lp1805
I34
aI4
aI4
aa(lp1806
I34
aI6
aI2
aa(lp1807
I34
aI7
aI1
aa(lp1808
I34
aI8
aa(lp1809
I34
aI8
aa(lp1810
I35
aI5
aI2
aa(lp1811
I35
aI6
aI1
aa(lp1812
I35
aI7
aa(lp1813
I36
aI4
aI2
aa(lp1814
I36
aI6
aa(lp1815
I36
aI6
aa(lp1816
I37
aI4
aI1
aa(lp1817
I37
aI5
aa(lp1818
I38
aI2
aI2
aa(lp1819
I38
aI4
aa(lp1820
I39
aI3
aa(lp1821
I40
aI2
aa(lp1822
I42
aas(I3
I4
tp1823
(lp1824
(lp1825
I4
aI4
aI4
aa(lp1826
I5
aI4
aI2
aI1
aa(lp1827
I6
aI2
aI2
aI2
aa(lp1828
I6
aI4
aI2
aa(lp1829
I6
aI6
aa(lp1830
I7
aI3
aI2
aa(lp1831
I7
aI4
aI1
aa(lp1832
I8
aI2
aI2
aa(lp1833
I8
aI4
aa(lp1834
I9
aI3
aa(lp1835
I10
aI2
aa(lp1836
I12
aas(I2
I4
tp1837
(lp1838
(lp1839
I2
aI2
aI2
aI2
aa(lp1840
I4
aI2
aI2
aa(lp1841
I4
aI4
aa(lp1842
I6
aI2
aa(lp1843
I8
aas(I10
I2
tp1844
(lp1845
(lp1846
I10
aI10
aa(lp1847
I12
aI8
aa(lp1848
I14
aI6
aa(lp1849
I16
aI4
aa(lp1850
I18
aI2
aa(lp1851
I20
aas.